target datalayout = "e-m:e-p270:32:32-p271:32:32-p272:64:64-i64:64-i128:128-f80:128-n8:16:32:64-S128"
target triple = "x86_64-pc-linux-gnu"

%struct.stats_info_response_msg = type { i32, i64, i64, i32, i32, i32, i32, i32, i32, i32, i32, i32, i32, i32, ptr, i32, i32, i32, i32, i32, i32, i32, i32, i32, i64, i32, i32, i32, i32, i64, i32, i32, ptr, i32, i32, i32, i32, i32, i32, i32, i32, i32, i64, i32, i32, ptr, ptr, ptr, i8, ptr, ptr, ptr, ptr, i32, ptr, ptr, ptr, i32, ptr, ptr, i32, ptr, ptr }

; Function Attrs: nounwind uwtable
define dso_local void @slurm_free_stats_response_msg(ptr noundef %0) #0 {
  %2 = alloca ptr, align 8
  %3 = alloca i32, align 4
  store ptr %0, ptr %2, align 8
  call void @llvm.lifetime.start.p0(i64 4, ptr %3) #11
  %4 = load ptr, ptr %2, align 8
  %5 = icmp ne ptr %4, null
  br i1 %5, label %6, label %56

6:                                                ; preds = %1
  %7 = load ptr, ptr %2, align 8
  %8 = getelementptr inbounds nuw %struct.stats_info_response_msg, ptr %7, i32 0, i32 32
  call void @slurm_xfree(ptr noundef %8)
  %9 = load ptr, ptr %2, align 8
  %10 = getelementptr inbounds nuw %struct.stats_info_response_msg, ptr %9, i32 0, i32 14
  call void @slurm_xfree(ptr noundef %10)
  %11 = load ptr, ptr %2, align 8
  %12 = getelementptr inbounds nuw %struct.stats_info_response_msg, ptr %11, i32 0, i32 45
  call void @slurm_xfree(ptr noundef %12)
  %13 = load ptr, ptr %2, align 8
  %14 = getelementptr inbounds nuw %struct.stats_info_response_msg, ptr %13, i32 0, i32 46
  call void @slurm_xfree(ptr noundef %14)
  %15 = load ptr, ptr %2, align 8
  %16 = getelementptr inbounds nuw %struct.stats_info_response_msg, ptr %15, i32 0, i32 47
  call void @slurm_xfree(ptr noundef %16)
  %17 = load ptr, ptr %2, align 8
  %18 = getelementptr inbounds nuw %struct.stats_info_response_msg, ptr %17, i32 0, i32 49
  call void @slurm_xfree(ptr noundef %18)
  %19 = load ptr, ptr %2, align 8
  %20 = getelementptr inbounds nuw %struct.stats_info_response_msg, ptr %19, i32 0, i32 50
  call void @slurm_xfree(ptr noundef %20)
  %21 = load ptr, ptr %2, align 8
  %22 = getelementptr inbounds nuw %struct.stats_info_response_msg, ptr %21, i32 0, i32 51
  call void @slurm_xfree(ptr noundef %22)
  %23 = load ptr, ptr %2, align 8
  %24 = getelementptr inbounds nuw %struct.stats_info_response_msg, ptr %23, i32 0, i32 52
  call void @slurm_xfree(ptr noundef %24)
  %25 = load ptr, ptr %2, align 8
  %26 = getelementptr inbounds nuw %struct.stats_info_response_msg, ptr %25, i32 0, i32 54
  call void @slurm_xfree(ptr noundef %26)
  %27 = load ptr, ptr %2, align 8
  %28 = getelementptr inbounds nuw %struct.stats_info_response_msg, ptr %27, i32 0, i32 55
  call void @slurm_xfree(ptr noundef %28)
  %29 = load ptr, ptr %2, align 8
  %30 = getelementptr inbounds nuw %struct.stats_info_response_msg, ptr %29, i32 0, i32 56
  call void @slurm_xfree(ptr noundef %30)
  %31 = load ptr, ptr %2, align 8
  %32 = getelementptr inbounds nuw %struct.stats_info_response_msg, ptr %31, i32 0, i32 58
  call void @slurm_xfree(ptr noundef %32)
  %33 = load ptr, ptr %2, align 8
  %34 = getelementptr inbounds nuw %struct.stats_info_response_msg, ptr %33, i32 0, i32 59
  call void @slurm_xfree(ptr noundef %34)
  %35 = load ptr, ptr %2, align 8
  %36 = getelementptr inbounds nuw %struct.stats_info_response_msg, ptr %35, i32 0, i32 61
  call void @slurm_xfree(ptr noundef %36)
  store i32 0, ptr %3, align 4
  br label %37

37:                                               ; preds = %50, %6
  %38 = load i32, ptr %3, align 4
  %39 = load ptr, ptr %2, align 8
  %40 = getelementptr inbounds nuw %struct.stats_info_response_msg, ptr %39, i32 0, i32 60
  %41 = load i32, ptr %40, align 8
  %42 = icmp ult i32 %38, %41
  br i1 %42, label %43, label %53

43:                                               ; preds = %37
  %44 = load ptr, ptr %2, align 8
  %45 = getelementptr inbounds nuw %struct.stats_info_response_msg, ptr %44, i32 0, i32 62
  %46 = load ptr, ptr %45, align 8
  %47 = load i32, ptr %3, align 4
  %48 = sext i32 %47 to i64
  %49 = getelementptr inbounds ptr, ptr %46, i64 %48
  call void @slurm_xfree(ptr noundef %49)
  br label %50

50:                                               ; preds = %43
  %51 = load i32, ptr %3, align 4
  %52 = add nsw i32 %51, 1
  store i32 %52, ptr %3, align 4
  br label %37, !llvm.loop !46

53:                                               ; preds = %37
  %54 = load ptr, ptr %2, align 8
  %55 = getelementptr inbounds nuw %struct.stats_info_response_msg, ptr %54, i32 0, i32 62
  call void @slurm_xfree(ptr noundef %55)
  call void @slurm_xfree(ptr noundef %2)
  br label %56

56:                                               ; preds = %53, %1
  call void @llvm.lifetime.end.p0(i64 4, ptr %3) #11
  ret void
}