; Function Attrs: nounwind uwtable
define dso_local void @slurm_free_stats_response_msg(ptr noundef %0) local_unnamed_addr #1 {
  %2 = alloca ptr, align 8
  store ptr %0, ptr %2, align 8
  %.not = icmp eq ptr %0, null
  br i1 %.not, label %29, label %3

3:                                                ; preds = %1
  %4 = getelementptr inbounds nuw i8, ptr %0, i64 160
  tail call void @slurm_xfree(ptr noundef nonnull %4) #24
  %5 = getelementptr inbounds nuw i8, ptr %0, i64 72
  tail call void @slurm_xfree(ptr noundef nonnull %5) #24
  %6 = getelementptr inbounds nuw i8, ptr %0, i64 224
  tail call void @slurm_xfree(ptr noundef nonnull %6) #24
  %7 = getelementptr inbounds nuw i8, ptr %0, i64 232
  tail call void @slurm_xfree(ptr noundef nonnull %7) #24
  %8 = getelementptr inbounds nuw i8, ptr %0, i64 240
  tail call void @slurm_xfree(ptr noundef nonnull %8) #24
  %9 = getelementptr inbounds nuw i8, ptr %0, i64 256
  tail call void @slurm_xfree(ptr noundef nonnull %9) #24
  %10 = getelementptr inbounds nuw i8, ptr %0, i64 264
  tail call void @slurm_xfree(ptr noundef nonnull %10) #24
  %11 = getelementptr inbounds nuw i8, ptr %0, i64 272
  tail call void @slurm_xfree(ptr noundef nonnull %11) #24
  %12 = getelementptr inbounds nuw i8, ptr %0, i64 280
  tail call void @slurm_xfree(ptr noundef nonnull %12) #24
  %13 = getelementptr inbounds nuw i8, ptr %0, i64 296
  tail call void @slurm_xfree(ptr noundef nonnull %13) #24
  %14 = getelementptr inbounds nuw i8, ptr %0, i64 304
  tail call void @slurm_xfree(ptr noundef nonnull %14) #24
  %15 = getelementptr inbounds nuw i8, ptr %0, i64 312
  tail call void @slurm_xfree(ptr noundef nonnull %15) #24
  %16 = getelementptr inbounds nuw i8, ptr %0, i64 328
  tail call void @slurm_xfree(ptr noundef nonnull %16) #24
  %17 = getelementptr inbounds nuw i8, ptr %0, i64 336
  tail call void @slurm_xfree(ptr noundef nonnull %17) #24
  %18 = getelementptr inbounds nuw i8, ptr %0, i64 352
  tail call void @slurm_xfree(ptr noundef nonnull %18) #24
  %19 = getelementptr inbounds nuw i8, ptr %0, i64 344
  %20 = load i32, ptr %19, align 8
  %.not5 = icmp eq i32 %20, 0
  br i1 %.not5, label %._crit_edge, label %.lr.ph

.lr.ph:                                           ; preds = %3
  %21 = getelementptr inbounds nuw i8, ptr %0, i64 360
  br label %22

22:                                               ; preds = %.lr.ph, %22
  %indvars.iv = phi i64 [ 0, %.lr.ph ], [ %indvars.iv.next, %22 ]
  %23 = load ptr, ptr %21, align 8
  %24 = getelementptr inbounds nuw ptr, ptr %23, i64 %indvars.iv
  tail call void @slurm_xfree(ptr noundef %24) #24
  %indvars.iv.next = add nuw nsw i64 %indvars.iv, 1
  %25 = load i32, ptr %19, align 8
  %26 = zext i32 %25 to i64
  %27 = icmp samesign ult i64 %indvars.iv.next, %26
  br i1 %27, label %22, label %._crit_edge, !llvm.loop !47

._crit_edge:                                      ; preds = %22, %3
  %28 = getelementptr inbounds nuw i8, ptr %0, i64 360
  tail call void @slurm_xfree(ptr noundef nonnull %28) #24
  call void @slurm_xfree(ptr noundef nonnull %2) #24
  br label %29

29:                                               ; preds = %._crit_edge, %1
  ret void
}